ccopy_reg
_reconstructor
p0
(cutil
Counter
p1
c__builtin__
dict
p2
(dp3
S'closest-food'
p4
F-2.2582143070538405e+258
sS'on-opponent-side'
p5
F0.0
sS'our-food-left'
p6
F-5.776967217637241e+259
sS'scared-time-left'
p7
F1.6454413364321232e+178
sS'#-of-ghosts'
p8
F0.0
sS'opponent-food-left'
p9
F-5.77696721763724e+260
sS'our-capsules-left'
p10
F0.0
sS'distance-between-opponents'
p11
F-4.33271956177422e+260
sS'bias'
p12
F-2.8884836088186204e+259
sS'score'
p13
F0.0
sS'#-of-opponent-pacmen'
p14
F-5.776967217637241e+259
sS'#-of-scared-ghosts'
p15
F0.0
sS'opponent-capsules-left'
p16
F0.0
sS'distance-to-teammate'
p17
F1.6245633578536437e+258
sS'#-of-ghosts-1-step-away'
p18
F0.0
stp19
Rp20
.