ccopy_reg
_reconstructor
p0
(cutil
Counter
p1
c__builtin__
dict
p2
(dp3
S'closest-food'
p4
F4.50980206360917e+56
sS'on-opponent-side'
p5
F0.0
sS'our-food-left'
p6
F1.1846063591628774e+59
sS'scared-time-left'
p7
F0.0
sS'#-of-ghosts'
p8
F0.0
sS'opponent-food-left'
p9
F1.1846063591628774e+59
sS'our-capsules-left'
p10
F0.0
sS'distance-between-opponents'
p11
F8.865412013630807e+58
sS'bias'
p12
F5.923031795814387e+57
sS'score'
p13
F0.0
sS'#-of-opponent-pacmen'
p14
F1.1846063591628774e+58
sS'#-of-scared-ghosts'
p15
F0.0
sS'opponent-capsules-left'
p16
F0.0
sS'distance-to-teammate'
p17
F5.923031795814387e+57
sS'#-of-ghosts-1-step-away'
p18
F0.0
stp19
Rp20
.