ccopy_reg
_reconstructor
p0
(cutil
Counter
p1
c__builtin__
dict
p2
(dp3
S'closest-food'
p4
F-1771.5341187879235
sS'on-opponent-side'
p5
F0.0
sS'#-of-ghosts-1-step-away'
p6
F0.0
sS'closest_ghost'
p7
F0.0
sS'eats-pacmen'
p8
F0.0
sS'closest_pacmen'
p9
F0.0
sS'bias'
p10
F-11090.45046150187
sS'#-of-opponent-pacmen'
p11
F-22180.90092300374
sS'#-of-ghosts'
p12
F0.0
sS'distance-to-teammate'
p13
F-26639.000759606828
sS'#-of-pacmen-1-step-away'
p14
F0.0
sS'eats-food'
p15
F34.50967043096102
stp16
Rp17
.