ccopy_reg
_reconstructor
p0
(cutil
Counter
p1
c__builtin__
dict
p2
(dp3
S'closest-food'
p4
F-0.01582723263019517
sS'bias'
p5
F-0.49306698900252427
sS'#-of-ghosts-1-step-away'
p6
F-0.005807993721338877
sS'eats-food'
p7
F-0.005529407474804378
stp8
Rp9
.