ccopy_reg
_reconstructor
p0
(cutil
Counter
p1
c__builtin__
dict
p2
(dp3
S'closest-food'
p4
F-3305.0756387096985
sS'on-opponent-side'
p5
F0.0
sS'closest_ghost'
p6
F0.0
sS'eats-pacmen'
p7
F0.0
sS'bias'
p8
F-22437.823675138097
sS'#-of-ghosts-1-step-away'
p9
F0.0
sS'#-of-pacmen-1-step-away'
p10
F0.0
sS'eats-food'
p11
F984.1081824180312
stp12
Rp13
.