ccopy_reg
_reconstructor
p0
(cutil
Counter
p1
c__builtin__
dict
p2
(dp3
S'closest-food'
p4
F-7.195786137393358e+54
sS'on-opponent-side'
p5
F0.0
sS'our-food-left'
p6
F-1.7964516795633888e+57
sS'scared-time-left'
p7
F0.0
sS'#-of-ghosts'
p8
F0.0
sS'opponent-food-left'
p9
F-1.7964516795633888e+57
sS'our-capsules-left'
p10
F0.0
sS'distance-between-opponents'
p11
F-1.4401486803734279e+57
sS'bias'
p12
F-8.982258397816944e+55
sS'score'
p13
F0.0
sS'#-of-opponent-pacmen'
p14
F-1.796451679563389e+56
sS'#-of-scared-ghosts'
p15
F0.0
sS'opponent-capsules-left'
p16
F0.0
sS'distance-to-teammate'
p17
F3.0331184809036002e+54
sS'#-of-ghosts-1-step-away'
p18
F0.0
stp19
Rp20
.