ccopy_reg
_reconstructor
p0
(cutil
Counter
p1
c__builtin__
dict
p2
(dp3
S'closest-food'
p4
F-7.019956071344092e+258
sS'on-opponent-side'
p5
F0.0
sS'our-food-left'
p6
F-1.8420125308962632e+260
sS'scared-time-left'
p7
F1.6446496373150044e+177
sS'#-of-ghosts'
p8
F0.0
sS'opponent-food-left'
p9
F-1.8420125308962633e+261
sS'our-capsules-left'
p10
F0.0
sS'distance-between-opponents'
p11
F-1.4692265495692708e+261
sS'bias'
p12
F-9.210062654481316e+259
sS'score'
p13
F0.0
sS'#-of-opponent-pacmen'
p14
F-1.8420125308962632e+260
sS'#-of-scared-ghosts'
p15
F0.0
sS'opponent-capsules-left'
p16
F0.0
sS'distance-to-teammate'
p17
F-9.210062655487478e+259
sS'#-of-ghosts-1-step-away'
p18
F0.0
stp19
Rp20
.