ccopy_reg
_reconstructor
p0
(cutil
Counter
p1
c__builtin__
dict
p2
(dp3
S'closest-food'
p4
F-0.01589046708735902
sS'bias'
p5
F-0.49299440849980614
sS'#-of-ghosts-1-step-away'
p6
F-0.014131057193399462
sS'eats-food'
p7
F-0.0058177215868990655
stp8
Rp9
.