ccopy_reg
_reconstructor
p0
(cutil
Counter
p1
c__builtin__
dict
p2
(dp3
S'successor-food-count'
p4
F5.492716795360543
sS'closest-food'
p5
F-0.8785125857956781
sS'closest-ghost'
p6
F0.0005280957712564295
sS'stop'
p7
F-30.55975428728214
sS'ghosts-1-step-away'
p8
F-1000.161788622425222
sS'died'
p9
F-1000.07510437436288
sS'eats-food'
p10
F89.26047919617167
stp11
Rp12
.
