ccopy_reg
_reconstructor
p0
(cutil
Counter
p1
c__builtin__
dict
p2
(dp3
S'is-scared'
p4
F-30.937132320218748
sS'reverse'
p5
F-16.176927065016113
sS'closest-opp'
p6
F-6.785451462972178
sS'distance-to-start'
p7
F0.0004630560170627981
sS'stop'
p8
F-14.32833355485826
sS'eats-pacman'
p9
F-0.32469805430148824
sS'num-opps'
p10
F-171.0751505258476
sS'closest-killer'
p11
F-0.48547966135195353
stp12
Rp13
.