ccopy_reg
_reconstructor
p1
(cutil
Counter
p2
c__builtin__
dict
p3
(dp4
S'closest-food'
p5
F-1.662851525705936
sS'closest-ghost'
p6
F-1.4350566242972669
sS'stop'
p7
F-29.823011688916004
sS'ghosts-1-step-away'
p8
F-1000.9683911932976
sS'distance-from-home'
p9
F-99.920029901729379
sS'opponents-4-steps-away'
p10
F-1.7552631443877547
sS'successor-food-count'
p11
F-0.01286863235705971
sS'died'
p12
F-2000.5819301567078
sS'eats-food'
p13
F48.622005393403555
stRp14
.