ccopy_reg
_reconstructor
p0
(cutil
Counter
p1
c__builtin__
dict
p2
(dp3
S'closestPac'
p4
F-1.86572622491129
sS'reverse'
p5
F-0.07261831349592639
sS'numPac'
p6
F20.77357017474603
sS'stop'
p7
F-0.06191323613976818
sS'distance-to-start'
p8
F-0.13962542026754798
sS'onDefense'
p9
F-28.10868651944547
stp10
Rp11
.