ccopy_reg
_reconstructor
p0
(cutil
Counter
p1
c__builtin__
dict
p2
(dp3
S'closestPac'
p4
F14.460868159796588
sS'stop'
p5
F-10.355754116382766
sS'reverse'
p6
F-5.405620775321538
sS'numPac'
p7
F-205.394538322561495
sS'eats-pacman'
p8
F39.597663762847304
stp9
Rp10
.
