ccopy_reg
_reconstructor
p0
(cutil
Counter
p1
c__builtin__
dict
p2
(dp3
S'successor-food-count'
p4
F37.68533500383231
sS'closest-food'
p5
F-0.7812298712140278
sS'closest-ghost'
p6
F0.1346487588331987
sS'stop'
p7
F-26.243259011333656
sS'ghosts-1-step-away'
p8
F-1001.070734681103
sS'died'
p9
F-995.2371448354237
sS'eats-food'
p10
F65.79349079712499
stp11
Rp12
.