ccopy_reg
_reconstructor
p0
(cutil
Counter
p1
c__builtin__
dict
p2
(dp3
S'closest-food'
p4
F0.9069474140847921
sS'onOffence'
p5
F331.59557799491205
sS'got-ate'
p6
F-12.490896895709641
sS'stop'
p7
F-0.014766596635696566
sS'successorNumFood'
p8
F1.7090982888633055
sS'#-of-ghosts-1-step-away'
p9
F-11.44778443538838
sS'opp-field-distance'
p10
F9.256430787782362
sS'eats-food'
p11
F-1.292785390707502
stp12
Rp13
.