ccopy_reg
_reconstructor
p0
(cutil
Counter
p1
c__builtin__
dict
p2
(dp3
S'closest-food'
p4
F-1.7375445133724208
sS'closest-ghost'
p5
F-1.4343185929660518
sS'stop'
p6
F-30.243259011333656
sS'ghosts-1-step-away'
p7
F-1001.9778176820699
sS'distance-from-home'
p8
F-100.12802348854741
sS'opponents-4-steps-away'
p9
F-1.0
sS'successor-food-count'
p10
F35.168968068840584
sS'died'
p11
F-2000.5819301567078
sS'eats-food'
p12
F50.56192087981589
stp13
Rp14
.