ccopy_reg
_reconstructor
p0
(cutil
Counter
p1
c__builtin__
dict
p2
(dp3
S'closest-food'
p4
F0.033667556225112874
sS'#-of-ghosts-1-step-away'
p5
F0.0
sS'successorNumFood'
p6
F2.68692490799102
sS'onOffence'
p7
F1.5987761786273635
sS'eats-food'
p8
F0.04051461740194233
stp9
Rp10
.