ccopy_reg
_reconstructor
p0
(cutil
Counter
p1
c__builtin__
dict
p2
(dp3
S'is-scared'
p4
F-59.12584503619839
sS'reverse'
p5
F-23.67316623173357
sS'closest-opp'
p6
F-100.64883656564535
sS'distance-to-start'
p7
F-2.374774758818715
sS'stop'
p8
F-14.249021993837639
sS'eats-pacman'
p9
F0.010972414183673729
sS'num-opps'
p10
F-235.47667282990807
sS'closest-killer'
p11
F-0.7145124834861909
stp12
Rp13
.