ccopy_reg
_reconstructor
p0
(cutil
Counter
p1
c__builtin__
dict
p2
(dp3
S'stop'
p4
F-6.527515395213345
sS'onDefense'
p5
F-45.58281520541954
sS'reverse'
p6
F-6.707569782574648
sS'numPac'
p7
F-91.16563041083909
sS'closestPac'
p8
F-1.6637140487899449
stp9
Rp10
.