ccopy_reg
_reconstructor
p0
(cutil
Counter
p1
c__builtin__
dict
p2
(dp3
S'closest-food'
p4
F3.3072807448525804e+93
sS'#-of-ghosts-1-step-away'
p5
F0.0
sS'successorNumFood'
p6
F8.893054214123173e+95
sS'onOffence'
p7
F1.0442217752411644
sS'eats-food'
p8
F0.27398227193229385
stp9
Rp10
.