ccopy_reg
_reconstructor
p0
(cutil
Counter
p1
c__builtin__
dict
p2
(dp3
S'closest-food'
p4
F-821.7522823870736
sS'on-opponent-side'
p5
F0.0
sS'#-of-ghosts'
p6
F0.0
sS'closest_ghost'
p7
F0.0
sS'eats-pacmen'
p8
F0.0
sS'closest_pacmen'
p9
F0.0
sS'bias'
p10
F-8474.131921728123
sS'#-of-opponent-pacmen'
p11
F-16948.263843456247
sS'#-of-ghosts-1-step-away'
p12
F0.0
sS'distance-to-teammate'
p13
F-23318.81596542551
sS'#-of-pacmen-1-step-away'
p14
F0.0
sS'eats-food'
p15
F-4455.100498596653
stp16
Rp17
.