ccopy_reg
_reconstructor
p1
(cutil
Counter
p2
c__builtin__
dict
p3
(dp4
S'closest-food'
p5
F-1.6628632625195814
sS'reverse'
p6
F-25.782246190694242
sS'closest-ghost'
p7
F0.092345634713250316
sS'stop'
p8
F-30.264430656804493
sS'distance-to-friend'
p9
F2.5003935434660369
sS'ghosts-1-step-away'
p10
F-2000.9683911932976
sS'distance-from-home'
p11
F-10000.920029901729379
sS'opponents-4-steps-away'
p12
F-3.0550523826620437
sS'successor-food-count'
p13
F100.0021893740633943063
sS'died'
p14
F-4000.5819301567078
sS'eats-food'
p15
F100.622005393403555
stRp16
.
