ccopy_reg
_reconstructor
p0
(cutil
Counter
p1
c__builtin__
dict
p2
(dp3
S'closest-food'
p4
F-1.7375445133724208
sS'closest-ghost'
p5
F-1.4343185929660517
sS'stop'
p6
F-30.243259011333656
sS'ghosts-1-step-away'
p7
F-1001.9778176820699
sS'distance-from-home'
p8
F-100.1280234885474125
sS'successor-food-count'
p9
F35.168968068840584
sS'died'
p10
F-2000.5819301567079
sS'eats-food'
p11
F50.56192087981589
stp12
Rp13
.
