ccopy_reg
_reconstructor
p0
(cutil
Counter
p1
c__builtin__
dict
p2
(dp3
S'successor-food-count'
p4
F49.456761126081034
sS'closest-food'
p5
F-0.4850862035209393
sS'stop'
p6
F-1.5597542872821382
sS'ghosts-1-step-away'
p7
F-8.27373984694935
sS'died'
p8
F-1.4792960928000003
sS'eats-food'
p9
F35.37793175918818
stp10
Rp11
.