ccopy_reg
_reconstructor
p0
(cutil
Counter
p1
c__builtin__
dict
p2
(dp3
S'closest-food'
p4
F0.018063892223299745
sS'successorNumFood'
p5
F-13.190184934729242
sS'onOffence'
p6
F72.7916642950994135
sS'#-of-ghosts-1-step-away'
p7
F-6.0
sS'stop'
p8
F-8.3442635367986906
sS'opp-field-distance'
p9
F-2.033351379067678766
sS'eats-food'
p10
F10.0
stp11
Rp12
.
