ccopy_reg
_reconstructor
p0
(cutil
Counter
p1
c__builtin__
dict
p2
(dp3
S'successor-food-count'
p4
F49.99624751706485
sS'closest-food'
p5
F-0.48650476444340796
sS'closest-ghost'
p6
F-0.002030487784801509
sS'stop'
p7
F-30.55975428728214
sS'ghosts-1-step-away'
p8
F-8.27373984694935
sS'died'
p9
F-10.4792960928
sS'eats-food'
p10
F40.37793175918818
stp11
Rp12
.