ccopy_reg
_reconstructor
p0
(cutil
Counter
p1
c__builtin__
dict
p2
(dp3
S'closest-food'
p4
F-422.99982126839956
sS'on-opponent-side'
p5
F0.0
sS'#-of-ghosts'
p6
F0.0
sS'closest_ghost'
p7
F0.0
sS'eats-pacmen'
p8
F0.0
sS'closest_pacmen'
p9
F0.0
sS'bias'
p10
F-9652.60915825466
sS'#-of-opponent-pacmen'
p11
F-19305.21831650932
sS'#-of-ghosts-1-step-away'
p12
F0.0
sS'distance-to-teammate'
p13
F804.3535288559805
sS'#-of-pacmen-1-step-away'
p14
F0.0
sS'eats-food'
p15
F-1252.767738676577
stp16
Rp17
.