ccopy_reg
_reconstructor
p0
(cutil
Counter
p1
c__builtin__
dict
p2
(dp3
S'closestPac'
p4
F41.822861254997285
sS'stop'
p5
F-7.231467977550523
sS'reverse'
p6
F-7.978485844305938
sS'numPac'
p7
F-73.26478341478114
sS'eats-pacman'
p8
F-0.5964650202401842
stp9
Rp10
.