ccopy_reg
_reconstructor
p1
(cutil
Counter
p2
c__builtin__
dict
p3
(dp4
S'closest-food'
p5
F-1.6986448005499488
sS'closest-ghost'
p6
F-1.4836508047256491
sS'stop'
p7
F-29.777933544155946
sS'distance-to-friend'
p8
F0.00039354346603694677
sS'ghosts-1-step-away'
p9
F-1000.9683911932976
sS'distance-from-home'
p10
F-99.920029901729379
sS'opponents-4-steps-away'
p11
F-3.0550523826620437
sS'successor-food-count'
p12
F18.073911406718796
sS'died'
p13
F-2000.5819301567078
sS'eats-food'
p14
F48.622005393403555
stRp15
.