ccopy_reg
_reconstructor
p1
(cutil
Counter
p2
c__builtin__
dict
p3
(dp4
S'is-scared'
p5
F-71.644623194759532
sS'reverse'
p6
F-24.237726477819464
sS'closest-opp'
p7
F-100.93836959931231
sS'distance-to-start'
p8
F-5.5319388749071949
sS'stop'
p9
F-15.116627267574856
sS'eats-pacman'
p10
F99.384866638739723
sS'num-opps'
p11
F-249.6821294859877
sS'closest-killer'
p12
F0.41750894410841005
stRp13
.