ccopy_reg
_reconstructor
p1
(cutil
Counter
p2
c__builtin__
dict
p3
(dp4
S'is-scared'
p5
F-106.6844053716024
sS'reverse'
p6
F-25.782246190694242
sS'closest-opp'
p7
F-102.05772051407411
sS'distance-to-start'
p8
F-5.5319388749071949
sS'stop'
p9
F-17.11940638920235
sS'eats-pacman'
p10
F99.184096316507649
sS'num-opps'
p11
F-266.13745693758131
sS'closest-killer'
p12
F20.4731431889471642
stRp13
.
